target datalayout = "e-m:e-p270:32:32-p271:32:32-p272:64:64-i64:64-i128:128-f80:128-n8:16:32:64-S128"
target triple = "x86_64-pc-linux-gnu"

%struct.luaL_Stream = type { ptr, ptr }

@.str.16 = private unnamed_addr constant [6 x i8] c"FILE*\00", align 1
@.str.19 = private unnamed_addr constant [2 x i8] c"r\00", align 1
@.str.31 = private unnamed_addr constant [13 x i8] c"invalid mode\00", align 1
@.str.32 = private unnamed_addr constant [4 x i8] c"rwa\00", align 1
@.str.33 = private unnamed_addr constant [2 x i8] c"b\00", align 1

; Function Attrs: nounwind uwtable
define internal ptr @newprefile(ptr noundef %0) #0 {
  %2 = alloca ptr, align 8
  %3 = alloca ptr, align 8
  store ptr %0, ptr %2, align 8, !tbaa !4
  call void @llvm.lifetime.start.p0(i64 8, ptr %3) #8
  %4 = load ptr, ptr %2, align 8, !tbaa !4
  %5 = call ptr @lua_newuserdatauv(ptr noundef %4, i64 noundef 16, i32 noundef 0)
  store ptr %5, ptr %3, align 8, !tbaa !13
  %6 = load ptr, ptr %3, align 8, !tbaa !13
  %7 = getelementptr inbounds nuw %struct.luaL_Stream, ptr %6, i32 0, i32 1
  store ptr null, ptr %7, align 8, !tbaa !17
  %8 = load ptr, ptr %2, align 8, !tbaa !4
  call void @luaL_setmetatable(ptr noundef %8, ptr noundef @.str.16)
  %9 = load ptr, ptr %3, align 8, !tbaa !13
  call void @llvm.lifetime.end.p0(i64 8, ptr %3) #8
  ret ptr %9
}

; Function Attrs: nounwind uwtable
define internal i32 @l_checkmode(ptr noundef %0) #0 {
  %2 = alloca ptr, align 8
  store ptr %0, ptr %2, align 8, !tbaa !11
  %3 = load ptr, ptr %2, align 8, !tbaa !11
  %4 = load i8, ptr %3, align 1, !tbaa !20
  %5 = sext i8 %4 to i32
  %6 = icmp ne i32 %5, 0
  br i1 %6, label %7, label %28

7:                                                ; preds = %1
  %8 = load ptr, ptr %2, align 8, !tbaa !11
  %9 = getelementptr inbounds nuw i8, ptr %8, i32 1
  store ptr %9, ptr %2, align 8, !tbaa !11
  %10 = load i8, ptr %8, align 1, !tbaa !20
  %11 = sext i8 %10 to i32
  %12 = call ptr @strchr(ptr noundef @.str.32, i32 noundef %11) #10
  %13 = icmp ne ptr %12, null
  br i1 %13, label %14, label %28

14:                                               ; preds = %7
  %15 = load ptr, ptr %2, align 8, !tbaa !11
  %16 = load i8, ptr %15, align 1, !tbaa !20
  %17 = sext i8 %16 to i32
  %18 = icmp ne i32 %17, 43
  br i1 %18, label %22, label %19

19:                                               ; preds = %14
  %20 = load ptr, ptr %2, align 8, !tbaa !11
  %21 = getelementptr inbounds nuw i8, ptr %20, i32 1
  store ptr %21, ptr %2, align 8, !tbaa !11
  br i1 true, label %22, label %28

22:                                               ; preds = %19, %14
  %23 = load ptr, ptr %2, align 8, !tbaa !11
  %24 = call i64 @strspn(ptr noundef %23, ptr noundef @.str.33) #10
  %25 = load ptr, ptr %2, align 8, !tbaa !11
  %26 = call i64 @strlen(ptr noundef %25) #10
  %27 = icmp eq i64 %24, %26
  br label %28

28:                                               ; preds = %22, %19, %7, %1
  %29 = phi i1 [ false, %19 ], [ false, %7 ], [ false, %1 ], [ %27, %22 ]
  %30 = zext i1 %29 to i32
  ret i32 %30
}

; Function Attrs: nounwind uwtable
define internal ptr @newfile(ptr noundef %0) #0 {
  %2 = alloca ptr, align 8
  %3 = alloca ptr, align 8
  store ptr %0, ptr %2, align 8, !tbaa !4
  call void @llvm.lifetime.start.p0(i64 8, ptr %3) #8
  %4 = load ptr, ptr %2, align 8, !tbaa !4
  %5 = call ptr @newprefile(ptr noundef %4)
  store ptr %5, ptr %3, align 8, !tbaa !13
  %6 = load ptr, ptr %3, align 8, !tbaa !13
  %7 = getelementptr inbounds nuw %struct.luaL_Stream, ptr %6, i32 0, i32 0
  store ptr null, ptr %7, align 8, !tbaa !15
  %8 = load ptr, ptr %3, align 8, !tbaa !13
  %9 = getelementptr inbounds nuw %struct.luaL_Stream, ptr %8, i32 0, i32 1
  store ptr @io_fclose, ptr %9, align 8, !tbaa !17
  %10 = load ptr, ptr %3, align 8, !tbaa !13
  call void @llvm.lifetime.end.p0(i64 8, ptr %3) #8
  ret ptr %10
}

; Function Attrs: nounwind uwtable
define internal i32 @io_open(ptr noundef %0) #0 {
  %2 = alloca ptr, align 8
  %3 = alloca ptr, align 8
  %4 = alloca ptr, align 8
  %5 = alloca ptr, align 8
  %6 = alloca ptr, align 8
  store ptr %0, ptr %2, align 8, !tbaa !4
  call void @llvm.lifetime.start.p0(i64 8, ptr %3) #8
  %7 = load ptr, ptr %2, align 8, !tbaa !4
  %8 = call ptr @luaL_checklstring(ptr noundef %7, i32 noundef 1, ptr noundef null)
  store ptr %8, ptr %3, align 8, !tbaa !11
  call void @llvm.lifetime.start.p0(i64 8, ptr %4) #8
  %9 = load ptr, ptr %2, align 8, !tbaa !4
  %10 = call ptr @luaL_optlstring(ptr noundef %9, i32 noundef 2, ptr noundef @.str.19, ptr noundef null)
  store ptr %10, ptr %4, align 8, !tbaa !11
  call void @llvm.lifetime.start.p0(i64 8, ptr %5) #8
  %11 = load ptr, ptr %2, align 8, !tbaa !4
  %12 = call ptr @newfile(ptr noundef %11)
  store ptr %12, ptr %5, align 8, !tbaa !13
  call void @llvm.lifetime.start.p0(i64 8, ptr %6) #8
  %13 = load ptr, ptr %4, align 8, !tbaa !11
  store ptr %13, ptr %6, align 8, !tbaa !11
  %14 = load ptr, ptr %6, align 8, !tbaa !11
  %15 = call i32 @l_checkmode(ptr noundef %14)
  %16 = icmp ne i32 %15, 0
  %17 = zext i1 %16 to i32
  %18 = sext i32 %17 to i64
  %19 = call i64 @llvm.expect.i64(i64 %18, i64 1)
  %20 = icmp ne i64 %19, 0
  br i1 %20, label %24, label %21

21:                                               ; preds = %1
  %22 = load ptr, ptr %2, align 8, !tbaa !4
  %23 = call i32 @luaL_argerror(ptr noundef %22, i32 noundef 2, ptr noundef @.str.31)
  br label %24

24:                                               ; preds = %21, %1
  %25 = call ptr @__errno_location() #9
  store i32 0, ptr %25, align 4, !tbaa !18
  %26 = load ptr, ptr %3, align 8, !tbaa !11
  %27 = load ptr, ptr %4, align 8, !tbaa !11
  %28 = call noalias ptr @fopen64(ptr noundef %26, ptr noundef %27)
  %29 = load ptr, ptr %5, align 8, !tbaa !13
  %30 = getelementptr inbounds nuw %struct.luaL_Stream, ptr %29, i32 0, i32 0
  store ptr %28, ptr %30, align 8, !tbaa !15
  %31 = load ptr, ptr %5, align 8, !tbaa !13
  %32 = getelementptr inbounds nuw %struct.luaL_Stream, ptr %31, i32 0, i32 0
  %33 = load ptr, ptr %32, align 8, !tbaa !15
  %34 = icmp eq ptr %33, null
  br i1 %34, label %35, label %39

35:                                               ; preds = %24
  %36 = load ptr, ptr %2, align 8, !tbaa !4
  %37 = load ptr, ptr %3, align 8, !tbaa !11
  %38 = call i32 @luaL_fileresult(ptr noundef %36, i32 noundef 0, ptr noundef %37)
  br label %40

39:                                               ; preds = %24
  br label %40

40:                                               ; preds = %39, %35
  %41 = phi i32 [ %38, %35 ], [ 1, %39 ]
  call void @llvm.lifetime.end.p0(i64 8, ptr %6) #8
  call void @llvm.lifetime.end.p0(i64 8, ptr %5) #8
  call void @llvm.lifetime.end.p0(i64 8, ptr %4) #8
  call void @llvm.lifetime.end.p0(i64 8, ptr %3) #8
  ret i32 %41
}