; Function Attrs: nounwind uwtable
define internal i32 @io_open(ptr noundef %0) #0 {
  %2 = tail call ptr @luaL_checklstring(ptr noundef %0, i32 noundef 1, ptr noundef null) #9
  %3 = tail call ptr @luaL_optlstring(ptr noundef %0, i32 noundef 2, ptr noundef nonnull @.str.19, ptr noundef null) #9
  %4 = tail call ptr @lua_newuserdatauv(ptr noundef %0, i64 noundef 16, i32 noundef 0) #9
  %5 = getelementptr inbounds nuw i8, ptr %4, i64 8
  store ptr null, ptr %5, align 8, !tbaa !9
  tail call void @luaL_setmetatable(ptr noundef %0, ptr noundef nonnull @.str.16) #9
  store ptr null, ptr %4, align 8, !tbaa !11
  store ptr @io_fclose, ptr %5, align 8, !tbaa !9
  %6 = load i8, ptr %3, align 1, !tbaa !16
  %.not.i = icmp eq i8 %6, 0
  br i1 %.not.i, label %l_checkmode.exit.thread, label %7

7:                                                ; preds = %1
  %8 = sext i8 %6 to i32
  %memchr.i = tail call ptr @memchr(ptr noundef nonnull dereferenceable(1) @.str.32, i32 %8, i64 4)
  %.not7.i = icmp eq ptr %memchr.i, null
  br i1 %.not7.i, label %l_checkmode.exit.thread, label %l_checkmode.exit

l_checkmode.exit:                                 ; preds = %7
  %9 = getelementptr inbounds nuw i8, ptr %3, i64 1
  %10 = load i8, ptr %9, align 1, !tbaa !16
  %.not8.i = icmp eq i8 %10, 43
  %11 = getelementptr inbounds nuw i8, ptr %3, i64 2
  %spec.select.i = select i1 %.not8.i, ptr %11, ptr %9
  %12 = tail call i64 @strspn(ptr noundef nonnull %spec.select.i, ptr noundef nonnull @.str.33) #11
  %13 = tail call i64 @strlen(ptr noundef nonnull dereferenceable(1) %spec.select.i) #11
  %.not = icmp eq i64 %12, %13
  br i1 %.not, label %15, label %l_checkmode.exit.thread, !prof !17

l_checkmode.exit.thread:                          ; preds = %1, %7, %l_checkmode.exit
  %14 = tail call i32 @luaL_argerror(ptr noundef %0, i32 noundef 2, ptr noundef nonnull @.str.31) #9
  br label %15

15:                                               ; preds = %l_checkmode.exit.thread, %l_checkmode.exit
  %16 = tail call ptr @__errno_location() #10
  store i32 0, ptr %16, align 4, !tbaa !14
  %17 = tail call noalias ptr @fopen64(ptr noundef %2, ptr noundef nonnull %3)
  store ptr %17, ptr %4, align 8, !tbaa !11
  %18 = icmp eq ptr %17, null
  br i1 %18, label %19, label %21

19:                                               ; preds = %15
  %20 = tail call i32 @luaL_fileresult(ptr noundef %0, i32 noundef 0, ptr noundef %2) #9
  br label %21

21:                                               ; preds = %15, %19
  %22 = phi i32 [ %20, %19 ], [ 1, %15 ]
  ret i32 %22
}